; Function Attrs: nofree norecurse nosync nounwind memory(read, inaccessiblemem: none) uwtable
define i32 @Gia_GlaCountFlops(ptr noundef readonly captures(none) %0, ptr noundef readonly captures(none) %1) local_unnamed_addr #6 {
  %3 = getelementptr i8, ptr %0, i64 16
  %.val18 = load i32, ptr %3, align 8, !tbaa !56
  %4 = icmp sgt i32 %.val18, 0
  br i1 %4, label %.lr.ph, label %.critedge

.lr.ph:                                           ; preds = %2
  %5 = getelementptr i8, ptr %0, i64 32
  %.val16 = load ptr, ptr %5, align 8, !tbaa !54
  %.not = icmp eq ptr %.val16, null
  br i1 %.not, label %.critedge, label %.lr.ph.split

.lr.ph.split:                                     ; preds = %.lr.ph
  %6 = getelementptr i8, ptr %1, i64 8
  %7 = getelementptr i8, ptr %0, i64 64
  %.val15 = load ptr, ptr %7, align 8, !tbaa !57
  %8 = getelementptr i8, ptr %.val15, i64 8
  %.val17.val = load ptr, ptr %8, align 8, !tbaa !41
  %9 = getelementptr i8, ptr %.val15, i64 4
  %.val15.val = load i32, ptr %9, align 4, !tbaa !44
  %invariant.op = sub i32 %.val15.val, %.val18
  %.val = load ptr, ptr %6, align 8, !tbaa !41
  %wide.trip.count = zext nneg i32 %.val18 to i64
  br label %10

10:                                               ; preds = %.lr.ph.split, %10
  %indvars.iv = phi i64 [ 0, %.lr.ph.split ], [ %indvars.iv.next, %10 ]
  %.020 = phi i32 [ 0, %.lr.ph.split ], [ %spec.select, %10 ]
  %11 = trunc nuw nsw i64 %indvars.iv to i32
  %.reass = add i32 %invariant.op, %11
  %12 = sext i32 %.reass to i64
  %13 = getelementptr inbounds i32, ptr %.val17.val, i64 %12
  %14 = load i32, ptr %13, align 4, !tbaa !42
  %15 = sext i32 %14 to i64
  %16 = getelementptr inbounds i32, ptr %.val, i64 %15
  %17 = load i32, ptr %16, align 4, !tbaa !42
  %.not12 = icmp ne i32 %17, 0
  %18 = zext i1 %.not12 to i32
  %spec.select = add nuw nsw i32 %.020, %18
  %indvars.iv.next = add nuw nsw i64 %indvars.iv, 1
  %exitcond.not = icmp eq i64 %indvars.iv.next, %wide.trip.count
  br i1 %exitcond.not, label %.critedge, label %10, !llvm.loop !64

.critedge:                                        ; preds = %10, %.lr.ph, %2
  %.0.lcssa = phi i32 [ 0, %2 ], [ 0, %.lr.ph ], [ %spec.select, %10 ]
  ret i32 %.0.lcssa
}